; Function Attrs: nounwind uwtable
define dso_local void @_ZThn8_N10cmDebugger26cmDebuggerPipeClient_POSIXD1Ev(ptr noundef %0) unnamed_addr #4 align 2 personality ptr @__gxx_personality_v0 {
  %2 = getelementptr inbounds i8, ptr %0, i64 -8
  store ptr getelementptr inbounds ({ [12 x ptr], [11 x ptr] }, ptr @_ZTVN10cmDebugger26cmDebuggerPipeClient_POSIXE, i64 0, i32 0, i64 6), ptr %2, align 8
  store ptr getelementptr inbounds ({ [12 x ptr], [11 x ptr] }, ptr @_ZTVN10cmDebugger26cmDebuggerPipeClient_POSIXE, i64 0, i32 1, i64 6), ptr %0, align 8
  %3 = getelementptr inbounds i8, ptr %0, i64 56
  %4 = load i32, ptr %3, align 8
  %5 = icmp sgt i32 %4, -1
  br i1 %5, label %6, label %_ZN10cmDebugger26cmDebuggerPipeClient_POSIX5closeEv.exit.i

6:                                                ; preds = %1
  %7 = invoke i32 @close(i32 noundef %4)
          to label %.noexc1.i unwind label %25

.noexc1.i:                                        ; preds = %6
  store i32 -1, ptr %3, align 8
  br label %_ZN10cmDebugger26cmDebuggerPipeClient_POSIX5closeEv.exit.i

_ZN10cmDebugger26cmDebuggerPipeClient_POSIX5closeEv.exit.i: ; preds = %.noexc1.i, %1
  %8 = getelementptr inbounds i8, ptr %0, i64 24
  tail call void @_ZNSt7__cxx1112basic_stringIcSt11char_traitsIcESaIcEED1Ev(ptr noundef nonnull align 8 dereferenceable(32) %8) #25
  %9 = getelementptr inbounds i8, ptr %0, i64 16
  %10 = load ptr, ptr %9, align 8
  %.not.i.i.i.i.i.i = icmp eq ptr %10, null
  br i1 %.not.i.i.i.i.i.i, label %_ZN10cmDebugger26cmDebuggerPipeClient_POSIXD1Ev.exit, label %11

11:                                               ; preds = %_ZN10cmDebugger26cmDebuggerPipeClient_POSIX5closeEv.exit.i
  %12 = getelementptr inbounds i8, ptr %10, i64 12
  %13 = load i8, ptr @__libc_single_threaded, align 1
  %.not.i.i.i.i.i.i.i = icmp eq i8 %13, 0
  br i1 %.not.i.i.i.i.i.i.i, label %17, label %14

14:                                               ; preds = %11
  %15 = load i32, ptr %12, align 4
  %16 = add nsw i32 %15, -1
  store i32 %16, ptr %12, align 4
  br label %19

17:                                               ; preds = %11
  %18 = atomicrmw volatile add ptr %12, i32 -1 acq_rel, align 4
  br label %19

19:                                               ; preds = %17, %14
  %.0.i.i.i.i.i.i.i = phi i32 [ %15, %14 ], [ %18, %17 ]
  %20 = icmp eq i32 %.0.i.i.i.i.i.i.i, 1
  br i1 %20, label %21, label %_ZN10cmDebugger26cmDebuggerPipeClient_POSIXD1Ev.exit

21:                                               ; preds = %19
  %22 = load ptr, ptr %10, align 8
  %23 = getelementptr inbounds i8, ptr %22, i64 24
  %24 = load ptr, ptr %23, align 8
  tail call void %24(ptr noundef nonnull align 8 dereferenceable(16) %10) #25
  br label %_ZN10cmDebugger26cmDebuggerPipeClient_POSIXD1Ev.exit

25:                                               ; preds = %6
  %26 = landingpad { ptr, i32 }
          catch ptr null
  %27 = extractvalue { ptr, i32 } %26, 0
  tail call void @__clang_call_terminate(ptr %27) #26
  unreachable

_ZN10cmDebugger26cmDebuggerPipeClient_POSIXD1Ev.exit: ; preds = %_ZN10cmDebugger26cmDebuggerPipeClient_POSIX5closeEv.exit.i, %19, %21
  ret void
}